; Function Attrs: nofree nosync nounwind memory(readwrite, inaccessiblemem: none) uwtable
define internal fastcc i32 @Wlc_NtkNodeRef_rec(ptr noundef readonly captures(none) %0, ptr noundef readonly captures(none) %1) unnamed_addr #20 {
  %.val18 = load i16, ptr %1, align 8
  %3 = and i16 %.val18, 61
  %narrow.i.not = icmp eq i16 %3, 1
  br i1 %narrow.i.not, label %.critedge, label %.preheader

.preheader:                                       ; preds = %2
  %4 = getelementptr i8, ptr %1, i64 4
  %.val2021 = load i32, ptr %4, align 4, !tbaa !39
  %5 = icmp sgt i32 %.val2021, 0
  br i1 %5, label %.lr.ph, label %.critedge

.lr.ph:                                           ; preds = %.preheader
  %6 = getelementptr inbounds nuw i8, ptr %1, i64 16
  %7 = getelementptr i8, ptr %0, i64 808
  %8 = getelementptr i8, ptr %0, i64 640
  br label %9

9:                                                ; preds = %.lr.ph, %26
  %indvars.iv = phi i64 [ 0, %.lr.ph ], [ %indvars.iv.next, %26 ]
  %.val2024 = phi i32 [ %.val2021, %.lr.ph ], [ %.val20, %26 ]
  %.023 = phi i32 [ 1, %.lr.ph ], [ %.1, %26 ]
  %10 = icmp ugt i32 %.val2024, 2
  br i1 %10, label %Wlc_ObjHasArray.exit.thread.i.i, label %11

11:                                               ; preds = %9
  %12 = load i16, ptr %1, align 8
  %13 = and i16 %12, 63
  switch i16 %13, label %Wlc_ObjFaninId.exit [
    i16 6, label %Wlc_ObjHasArray.exit.thread.i.i
    i16 22, label %Wlc_ObjHasArray.exit.thread.i.i
  ]

Wlc_ObjHasArray.exit.thread.i.i:                  ; preds = %11, %11, %9
  %14 = load ptr, ptr %6, align 8, !tbaa !28
  br label %Wlc_ObjFaninId.exit

Wlc_ObjFaninId.exit:                              ; preds = %11, %Wlc_ObjHasArray.exit.thread.i.i
  %15 = phi ptr [ %14, %Wlc_ObjHasArray.exit.thread.i.i ], [ %6, %11 ]
  %16 = getelementptr inbounds nuw i32, ptr %15, i64 %indvars.iv
  %17 = load i32, ptr %16, align 4, !tbaa !15
  %.val = load ptr, ptr %7, align 8, !tbaa !14
  %18 = sext i32 %17 to i64
  %19 = getelementptr inbounds i32, ptr %.val, i64 %18
  %20 = load i32, ptr %19, align 4, !tbaa !15
  %21 = icmp eq i32 %20, 0
  br i1 %21, label %22, label %26

22:                                               ; preds = %Wlc_ObjFaninId.exit
  %.val17 = load ptr, ptr %8, align 8, !tbaa !19
  %23 = getelementptr inbounds %struct.Wlc_Obj_t_, ptr %.val17, i64 %18
  %24 = tail call fastcc i32 @Wlc_NtkNodeRef_rec(ptr noundef nonnull %0, ptr noundef %23)
  %25 = add nsw i32 %24, %.023
  %.val19.pre = load ptr, ptr %7, align 8, !tbaa !14
  %.phi.trans.insert = getelementptr inbounds i32, ptr %.val19.pre, i64 %18
  %.pre = load i32, ptr %.phi.trans.insert, align 4, !tbaa !15
  br label %26

26:                                               ; preds = %22, %Wlc_ObjFaninId.exit
  %27 = phi i32 [ %.pre, %22 ], [ %20, %Wlc_ObjFaninId.exit ]
  %.val19 = phi ptr [ %.val19.pre, %22 ], [ %.val, %Wlc_ObjFaninId.exit ]
  %.1 = phi i32 [ %25, %22 ], [ %.023, %Wlc_ObjFaninId.exit ]
  %28 = getelementptr inbounds i32, ptr %.val19, i64 %18
  %29 = add nsw i32 %27, 1
  store i32 %29, ptr %28, align 4, !tbaa !15
  %indvars.iv.next = add nuw nsw i64 %indvars.iv, 1
  %.val20 = load i32, ptr %4, align 4, !tbaa !39
  %30 = sext i32 %.val20 to i64
  %31 = icmp slt i64 %indvars.iv.next, %30
  br i1 %31, label %9, label %.critedge, !llvm.loop !272

.critedge:                                        ; preds = %26, %.preheader, %2
  %.015 = phi i32 [ 0, %2 ], [ 1, %.preheader ], [ %.1, %26 ]
  ret i32 %.015
}